target datalayout = "e-m:e-p270:32:32-p271:32:32-p272:64:64-i64:64-i128:128-f80:128-n8:16:32:64-S128"
target triple = "x86_64-pc-linux-gnu"

%"class.OpenColorIO_v2_5dev::OpCPU" = type { ptr }
%"struct.OpenColorIO_v2_5dev::ACES2::JMhParams" = type { float, float, float, float, %"struct.std::array", %"struct.std::array", %"struct.std::array.13", %"struct.std::array.13" }
%"struct.std::array" = type { [3 x float] }
%"struct.std::array.13" = type { [9 x float] }
%"struct.OpenColorIO_v2_5dev::ACES2::ToneScaleParams" = type { float, float, float, float, float, float, float, float }
%"struct.OpenColorIO_v2_5dev::ACES2::ChromaCompressParams" = type { float, float, float, float, float, %"struct.OpenColorIO_v2_5dev::ACES2::Table1D", float }
%"struct.OpenColorIO_v2_5dev::ACES2::Table1D" = type { [362 x float] }
%"class.OpenColorIO_v2_5dev::Renderer_ACES_TONESCALE_COMPRESS_20" = type <{ %"class.OpenColorIO_v2_5dev::OpCPU", i8, [3 x i8], %"struct.OpenColorIO_v2_5dev::ACES2::JMhParams", %"struct.OpenColorIO_v2_5dev::ACES2::ToneScaleParams", %"struct.OpenColorIO_v2_5dev::ACES2::ChromaCompressParams", [4 x i8] }>

; Function Attrs: mustprogress nounwind uwtable
define linkonce_odr hidden noundef nonnull align 4 dereferenceable(4) ptr @_ZNSt14__array_traitsIfLm3EE6_S_refERA3_Kfm(ptr noundef nonnull align 4 dereferenceable(12) %0, i64 noundef %1) #4 comdat align 2 {
  %3 = alloca ptr, align 8
  %4 = alloca i64, align 8
  store ptr %0, ptr %3, align 8, !tbaa !29
  store i64 %1, ptr %4, align 8, !tbaa !27
  %5 = load ptr, ptr %3, align 8, !tbaa !29
  %6 = load i64, ptr %4, align 8, !tbaa !27
  %7 = getelementptr inbounds nuw [3 x float], ptr %5, i64 0, i64 %6
  ret ptr %7
}

; Function Attrs: mustprogress nounwind uwtable
define linkonce_odr hidden noundef nonnull align 4 dereferenceable(4) ptr @_ZNKSt5arrayIfLm3EEixEm(ptr noundef nonnull align 4 dereferenceable(12) %0, i64 noundef %1) #4 comdat align 2 {
  %3 = alloca ptr, align 8
  %4 = alloca i64, align 8
  store ptr %0, ptr %3, align 8, !tbaa !137
  store i64 %1, ptr %4, align 8, !tbaa !27
  %5 = load ptr, ptr %3, align 8
  %6 = getelementptr inbounds nuw %"struct.std::array", ptr %5, i32 0, i32 0
  %7 = load i64, ptr %4, align 8, !tbaa !27
  %8 = call noundef nonnull align 4 dereferenceable(4) ptr @_ZNSt14__array_traitsIfLm3EE6_S_refERA3_Kfm(ptr noundef nonnull align 4 dereferenceable(12) %6, i64 noundef %7) #3
  ret ptr %8
}

; Function Attrs: mustprogress uwtable
define hidden void @_ZNK19OpenColorIO_v2_5dev35Renderer_ACES_TONESCALE_COMPRESS_203fwdEPKvPvl(ptr noundef nonnull align 8 dereferenceable(1628) %0, ptr noundef %1, ptr noundef %2, i64 noundef %3) #12 align 2 {
  %5 = alloca ptr, align 8
  %6 = alloca ptr, align 8
  %7 = alloca ptr, align 8
  %8 = alloca i64, align 8
  %9 = alloca ptr, align 8
  %10 = alloca ptr, align 8
  %11 = alloca i64, align 8
  %12 = alloca %"struct.std::array", align 4
  %13 = alloca %"struct.std::array", align 4
  %14 = alloca { <2 x float>, float }, align 8
  store ptr %0, ptr %5, align 8, !tbaa !145
  store ptr %1, ptr %6, align 8, !tbaa !26
  store ptr %2, ptr %7, align 8, !tbaa !26
  store i64 %3, ptr %8, align 8, !tbaa !27
  %15 = load ptr, ptr %5, align 8
  call void @llvm.lifetime.start.p0(i64 8, ptr %9) #3
  %16 = load ptr, ptr %6, align 8, !tbaa !26
  store ptr %16, ptr %9, align 8, !tbaa !29
  call void @llvm.lifetime.start.p0(i64 8, ptr %10) #3
  %17 = load ptr, ptr %7, align 8, !tbaa !26
  store ptr %17, ptr %10, align 8, !tbaa !29
  call void @llvm.lifetime.start.p0(i64 8, ptr %11) #3
  store i64 0, ptr %11, align 8, !tbaa !27
  br label %18

18:                                               ; preds = %62, %4
  %19 = load i64, ptr %11, align 8, !tbaa !27
  %20 = load i64, ptr %8, align 8, !tbaa !27
  %21 = icmp slt i64 %19, %20
  br i1 %21, label %23, label %22

22:                                               ; preds = %18
  call void @llvm.lifetime.end.p0(i64 8, ptr %11) #3
  br label %65

23:                                               ; preds = %18
  call void @llvm.lifetime.start.p0(i64 12, ptr %12) #3
  call void @llvm.lifetime.start.p0(i64 12, ptr %13) #3
  %24 = getelementptr inbounds nuw %"struct.std::array", ptr %13, i32 0, i32 0
  %25 = load ptr, ptr %9, align 8, !tbaa !29
  %26 = getelementptr inbounds float, ptr %25, i64 0
  %27 = load float, ptr %26, align 4, !tbaa !31
  store float %27, ptr %24, align 4, !tbaa !31
  %28 = getelementptr inbounds float, ptr %24, i64 1
  %29 = load ptr, ptr %9, align 8, !tbaa !29
  %30 = getelementptr inbounds float, ptr %29, i64 1
  %31 = load float, ptr %30, align 4, !tbaa !31
  store float %31, ptr %28, align 4, !tbaa !31
  %32 = getelementptr inbounds float, ptr %24, i64 2
  %33 = load ptr, ptr %9, align 8, !tbaa !29
  %34 = getelementptr inbounds float, ptr %33, i64 2
  %35 = load float, ptr %34, align 4, !tbaa !31
  store float %35, ptr %32, align 4, !tbaa !31
  %36 = getelementptr inbounds nuw %"class.OpenColorIO_v2_5dev::Renderer_ACES_TONESCALE_COMPRESS_20", ptr %15, i32 0, i32 3
  %37 = getelementptr inbounds nuw %"class.OpenColorIO_v2_5dev::Renderer_ACES_TONESCALE_COMPRESS_20", ptr %15, i32 0, i32 4
  %38 = getelementptr inbounds nuw %"class.OpenColorIO_v2_5dev::Renderer_ACES_TONESCALE_COMPRESS_20", ptr %15, i32 0, i32 5
  %39 = call { <2 x float>, float } @_ZN19OpenColorIO_v2_5dev5ACES229tonescale_chroma_compress_fwdERKSt5arrayIfLm3EERKNS0_9JMhParamsERKNS0_15ToneScaleParamsERKNS0_20ChromaCompressParamsE(ptr noundef nonnull align 4 dereferenceable(12) %13, ptr noundef nonnull align 4 dereferenceable(112) %36, ptr noundef nonnull align 4 dereferenceable(32) %37, ptr noundef nonnull align 4 dereferenceable(1472) %38)
  %40 = getelementptr inbounds nuw %"struct.std::array", ptr %12, i32 0, i32 0
  store { <2 x float>, float } %39, ptr %14, align 8
  call void @llvm.memcpy.p0.p0.i64(ptr align 4 %40, ptr align 8 %14, i64 12, i1 false)
  call void @llvm.lifetime.end.p0(i64 12, ptr %13) #3
  %41 = call noundef nonnull align 4 dereferenceable(4) ptr @_ZNKSt5arrayIfLm3EEixEm(ptr noundef nonnull align 4 dereferenceable(12) %12, i64 noundef 0) #3
  %42 = load float, ptr %41, align 4, !tbaa !31
  %43 = load ptr, ptr %10, align 8, !tbaa !29
  %44 = getelementptr inbounds float, ptr %43, i64 0
  store float %42, ptr %44, align 4, !tbaa !31
  %45 = call noundef nonnull align 4 dereferenceable(4) ptr @_ZNKSt5arrayIfLm3EEixEm(ptr noundef nonnull align 4 dereferenceable(12) %12, i64 noundef 1) #3
  %46 = load float, ptr %45, align 4, !tbaa !31
  %47 = load ptr, ptr %10, align 8, !tbaa !29
  %48 = getelementptr inbounds float, ptr %47, i64 1
  store float %46, ptr %48, align 4, !tbaa !31
  %49 = call noundef nonnull align 4 dereferenceable(4) ptr @_ZNKSt5arrayIfLm3EEixEm(ptr noundef nonnull align 4 dereferenceable(12) %12, i64 noundef 2) #3
  %50 = load float, ptr %49, align 4, !tbaa !31
  %51 = load ptr, ptr %10, align 8, !tbaa !29
  %52 = getelementptr inbounds float, ptr %51, i64 2
  store float %50, ptr %52, align 4, !tbaa !31
  %53 = load ptr, ptr %9, align 8, !tbaa !29
  %54 = getelementptr inbounds float, ptr %53, i64 3
  %55 = load float, ptr %54, align 4, !tbaa !31
  %56 = load ptr, ptr %10, align 8, !tbaa !29
  %57 = getelementptr inbounds float, ptr %56, i64 3
  store float %55, ptr %57, align 4, !tbaa !31
  %58 = load ptr, ptr %9, align 8, !tbaa !29
  %59 = getelementptr inbounds float, ptr %58, i64 4
  store ptr %59, ptr %9, align 8, !tbaa !29
  %60 = load ptr, ptr %10, align 8, !tbaa !29
  %61 = getelementptr inbounds float, ptr %60, i64 4
  store ptr %61, ptr %10, align 8, !tbaa !29
  call void @llvm.lifetime.end.p0(i64 12, ptr %12) #3
  br label %62

62:                                               ; preds = %23
  %63 = load i64, ptr %11, align 8, !tbaa !27
  %64 = add nsw i64 %63, 1
  store i64 %64, ptr %11, align 8, !tbaa !27
  br label %18, !llvm.loop !149

65:                                               ; preds = %22
  call void @llvm.lifetime.end.p0(i64 8, ptr %10) #3
  call void @llvm.lifetime.end.p0(i64 8, ptr %9) #3
  ret void
}