; Function Attrs: mustprogress uwtable
define hidden void @_ZNK19OpenColorIO_v2_5dev35Renderer_ACES_TONESCALE_COMPRESS_203fwdEPKvPvl(ptr noundef nonnull align 8 dereferenceable(1628) %0, ptr noundef readonly captures(none) %1, ptr noundef writeonly captures(none) %2, i64 noundef %3) local_unnamed_addr #11 align 2 {
  %5 = alloca %"struct.std::array", align 4
  %6 = icmp sgt i64 %3, 0
  br i1 %6, label %.lr.ph, label %._crit_edge

.lr.ph:                                           ; preds = %4
  %7 = getelementptr inbounds nuw i8, ptr %5, i64 4
  %8 = getelementptr inbounds nuw i8, ptr %5, i64 8
  %9 = getelementptr inbounds nuw i8, ptr %0, i64 12
  %10 = getelementptr inbounds nuw i8, ptr %0, i64 124
  %11 = getelementptr inbounds nuw i8, ptr %0, i64 156
  br label %12

._crit_edge:                                      ; preds = %12, %4
  ret void

12:                                               ; preds = %.lr.ph, %12
  %.019 = phi ptr [ %1, %.lr.ph ], [ %24, %12 ]
  %.01518 = phi ptr [ %2, %.lr.ph ], [ %25, %12 ]
  %.01617 = phi i64 [ 0, %.lr.ph ], [ %26, %12 ]
  call void @llvm.lifetime.start.p0(i64 12, ptr nonnull %5) #28
  %13 = load float, ptr %.019, align 4, !tbaa !13
  store float %13, ptr %5, align 4, !tbaa !13
  %14 = getelementptr inbounds nuw i8, ptr %.019, i64 4
  %15 = load float, ptr %14, align 4, !tbaa !13
  store float %15, ptr %7, align 4, !tbaa !13
  %16 = getelementptr inbounds nuw i8, ptr %.019, i64 8
  %17 = load float, ptr %16, align 4, !tbaa !13
  store float %17, ptr %8, align 4, !tbaa !13
  %18 = call { <2 x float>, float } @_ZN19OpenColorIO_v2_5dev5ACES229tonescale_chroma_compress_fwdERKSt5arrayIfLm3EERKNS0_9JMhParamsERKNS0_15ToneScaleParamsERKNS0_20ChromaCompressParamsE(ptr noundef nonnull align 4 dereferenceable(12) %5, ptr noundef nonnull align 4 dereferenceable(112) %9, ptr noundef nonnull align 4 dereferenceable(32) %10, ptr noundef nonnull align 4 dereferenceable(1472) %11)
  %.fca.0.extract = extractvalue { <2 x float>, float } %18, 0
  %.fca.1.extract = extractvalue { <2 x float>, float } %18, 1
  call void @llvm.lifetime.end.p0(i64 12, ptr nonnull %5) #28
  %.sroa.0.0.vec.extract = extractelement <2 x float> %.fca.0.extract, i64 0
  store float %.sroa.0.0.vec.extract, ptr %.01518, align 4, !tbaa !13
  %.sroa.0.4.vec.extract = extractelement <2 x float> %.fca.0.extract, i64 1
  %19 = getelementptr inbounds nuw i8, ptr %.01518, i64 4
  store float %.sroa.0.4.vec.extract, ptr %19, align 4, !tbaa !13
  %20 = getelementptr inbounds nuw i8, ptr %.01518, i64 8
  store float %.fca.1.extract, ptr %20, align 4, !tbaa !13
  %21 = getelementptr inbounds nuw i8, ptr %.019, i64 12
  %22 = load float, ptr %21, align 4, !tbaa !13
  %23 = getelementptr inbounds nuw i8, ptr %.01518, i64 12
  store float %22, ptr %23, align 4, !tbaa !13
  %24 = getelementptr inbounds nuw i8, ptr %.019, i64 16
  %25 = getelementptr inbounds nuw i8, ptr %.01518, i64 16
  %26 = add nuw nsw i64 %.01617, 1
  %exitcond.not = icmp eq i64 %26, %3
  br i1 %exitcond.not, label %._crit_edge, label %12, !llvm.loop !108
}